; Function Attrs: nounwind uwtable
define dso_local noundef i64 @textrecv(ptr noundef readonly captures(none) %0) local_unnamed_addr #0 {
  %2 = alloca i32, align 4
  %3 = getelementptr inbounds nuw i8, ptr %0, i64 32
  %4 = load i64, ptr %3, align 8
  %5 = inttoptr i64 %4 to ptr
  call void @llvm.lifetime.start.p0(i64 4, ptr nonnull %2) #19
  %6 = getelementptr inbounds nuw i8, ptr %5, i64 8
  %7 = load i32, ptr %6, align 8
  %8 = getelementptr inbounds nuw i8, ptr %5, i64 16
  %9 = load i32, ptr %8, align 8
  %10 = sub i32 %7, %9
  %11 = call ptr @pq_getmsgtext(ptr noundef %5, i32 noundef %10, ptr noundef nonnull %2) #19
  %12 = load i32, ptr %2, align 4
  %13 = add i32 %12, 4
  %14 = sext i32 %13 to i64
  %15 = call ptr @palloc(i64 noundef %14) #19
  %16 = shl i32 %13, 2
  store i32 %16, ptr %15, align 4
  %17 = getelementptr inbounds nuw i8, ptr %15, i64 4
  %18 = sext i32 %12 to i64
  call void @llvm.memcpy.p0.p0.i64(ptr nonnull align 4 %17, ptr readonly align 1 %11, i64 %18, i1 false)
  call void @pfree(ptr noundef %11) #19
  %19 = ptrtoint ptr %15 to i64
  call void @llvm.lifetime.end.p0(i64 4, ptr nonnull %2) #19
  ret i64 %19
}